(lp1
(lp2
S'admin'
p3
a(dp4
S'username'
p5
g3
sS'account_type'
p6
S'user'
p7
sS'temporary_password'
p8
S''
sS'is_suspended'
p9
I00
sS'external_auth'
p10
NsS'viewable_worksheets'
p11
c__builtin__
set
p12
((ltRp13
sS'email_confirmed'
p14
I00
sS'conf'
p15
(dp16
sS'password'
p17
S'sha256$7266b7fbbae5950ba633c694dfa9215e6e7e91c10db20a99fe75b20d3f7e3505$507415279a338e9c680b85718275ce0a50d29951850932b7666b35047e562ec5'
p18
sS'email'
p19
S''
saa.