ccopy_reg
_reconstructor
p1
(cmatplotlib.font_manager
FontManager
p2
c__builtin__
object
p3
NtRp4
(dp5
S'ttflist'
p6
(lp7
g1
(cmatplotlib.font_manager
FontEntry
p8
g3
NtRp9
(dp10
S'style'
p11
Vnormal
p12
sS'name'
p13
VSTIXNonUnicode
p14
sS'weight'
p15
I700
sS'stretch'
p16
g12
sS'variant'
p17
g12
sS'fname'
p18
V/opt/sage/local/lib/python2.7/site-packages/matplotlib/mpl-data/fonts/ttf/STIXNonUniBol.ttf
p19
sS'size'
p20
Vscalable
p21
sbag1
(g8
g3
NtRp22
(dp23
g11
Vitalic
p24
sg13
VSTIXNonUnicode
p25
sg15
I400
sg16
g12
sg17
g12
sg18
V/opt/sage/local/lib/python2.7/site-packages/matplotlib/mpl-data/fonts/ttf/STIXNonUniIta.ttf
p26
sg20
g21
sbag1
(g8
g3
NtRp27
(dp28
g11
g12
sg13
VSTIXGeneral
p29
sg15
I700
sg16
g12
sg17
g12
sg18
V/opt/sage/local/lib/python2.7/site-packages/matplotlib/mpl-data/fonts/ttf/STIXGeneralBol.ttf
p30
sg20
g21
sbag1
(g8
g3
NtRp31
(dp32
g11
g12
sg13
Vcmtt10
p33
sg15
I400
sg16
g12
sg17
g12
sg18
V/opt/sage/local/lib/python2.7/site-packages/matplotlib/mpl-data/fonts/ttf/cmtt10.ttf
p34
sg20
g21
sbag1
(g8
g3
NtRp35
(dp36
g11
g12
sg13
Vcmb10
p37
sg15
I400
sg16
g12
sg17
g12
sg18
V/opt/sage/local/lib/python2.7/site-packages/matplotlib/mpl-data/fonts/ttf/cmb10.ttf
p38
sg20
g21
sbag1
(g8
g3
NtRp39
(dp40
g11
Voblique
p41
sg13
VBitstream Vera Sans Mono
p42
sg15
I400
sg16
g12
sg17
g12
sg18
V/opt/sage/local/lib/python2.7/site-packages/matplotlib/mpl-data/fonts/ttf/VeraMoIt.ttf
p43
sg20
g21
sbag1
(g8
g3
NtRp44
(dp45
g11
g12
sg13
VSTIXSizeOneSym
p46
sg15
I700
sg16
g12
sg17
g12
sg18
V/opt/sage/local/lib/python2.7/site-packages/matplotlib/mpl-data/fonts/ttf/STIXSizOneSymBol.ttf
p47
sg20
g21
sbag1
(g8
g3
NtRp48
(dp49
g11
g12
sg13
Vcmr10
p50
sg15
I400
sg16
g12
sg17
g12
sg18
V/opt/sage/local/lib/python2.7/site-packages/matplotlib/mpl-data/fonts/ttf/cmr10.ttf
p51
sg20
g21
sbag1
(g8
g3
NtRp52
(dp53
g11
g12
sg13
VSTIXSizeTwoSym
p54
sg15
I700
sg16
g12
sg17
g12
sg18
V/opt/sage/local/lib/python2.7/site-packages/matplotlib/mpl-data/fonts/ttf/STIXSizTwoSymBol.ttf
p55
sg20
g21
sbag1
(g8
g3
NtRp56
(dp57
g11
g12
sg13
Vcmss10
p58
sg15
I400
sg16
g12
sg17
g12
sg18
V/opt/sage/local/lib/python2.7/site-packages/matplotlib/mpl-data/fonts/ttf/cmss10.ttf
p59
sg20
g21
sbag1
(g8
g3
NtRp60
(dp61
g11
g12
sg13
Vcmex10
p62
sg15
I400
sg16
g12
sg17
g12
sg18
V/opt/sage/local/lib/python2.7/site-packages/matplotlib/mpl-data/fonts/ttf/cmex10.ttf
p63
sg20
g21
sbag1
(g8
g3
NtRp64
(dp65
g11
g12
sg13
Vcmsy10
p66
sg15
I400
sg16
g12
sg17
g12
sg18
V/opt/sage/local/lib/python2.7/site-packages/matplotlib/mpl-data/fonts/ttf/cmsy10.ttf
p67
sg20
g21
sbag1
(g8
g3
NtRp68
(dp69
g11
g41
sg13
VBitstream Vera Sans Mono
p70
sg15
I700
sg16
g12
sg17
g12
sg18
V/opt/sage/local/lib/python2.7/site-packages/matplotlib/mpl-data/fonts/ttf/VeraMoBI.ttf
p71
sg20
g21
sbag1
(g8
g3
NtRp72
(dp73
g11
g12
sg13
VSTIXNonUnicode
p74
sg15
I400
sg16
g12
sg17
g12
sg18
V/opt/sage/local/lib/python2.7/site-packages/matplotlib/mpl-data/fonts/ttf/STIXNonUni.ttf
p75
sg20
g21
sbag1
(g8
g3
NtRp76
(dp77
g11
g12
sg13
VSTIXSizeOneSym
p78
sg15
I400
sg16
g12
sg17
g12
sg18
V/opt/sage/local/lib/python2.7/site-packages/matplotlib/mpl-data/fonts/ttf/STIXSizOneSymReg.ttf
p79
sg20
g21
sbag1
(g8
g3
NtRp80
(dp81
g11
g12
sg13
VBitstream Vera Sans Mono
p82
sg15
I400
sg16
g12
sg17
g12
sg18
V/opt/sage/local/lib/python2.7/site-packages/matplotlib/mpl-data/fonts/ttf/VeraMono.ttf
p83
sg20
g21
sbag1
(g8
g3
NtRp84
(dp85
g11
g24
sg13
VSTIXNonUnicode
p86
sg15
I700
sg16
g12
sg17
g12
sg18
V/opt/sage/local/lib/python2.7/site-packages/matplotlib/mpl-data/fonts/ttf/STIXNonUniBolIta.ttf
p87
sg20
g21
sbag1
(g8
g3
NtRp88
(dp89
g11
g41
sg13
VBitstream Vera Sans
p90
sg15
I700
sg16
g12
sg17
g12
sg18
V/opt/sage/local/lib/python2.7/site-packages/matplotlib/mpl-data/fonts/ttf/VeraBI.ttf
p91
sg20
g21
sbag1
(g8
g3
NtRp92
(dp93
g11
g12
sg13
VBitstream Vera Serif
p94
sg15
I700
sg16
g12
sg17
g12
sg18
V/opt/sage/local/lib/python2.7/site-packages/matplotlib/mpl-data/fonts/ttf/VeraSeBd.ttf
p95
sg20
g21
sbag1
(g8
g3
NtRp96
(dp97
g11
g12
sg13
Vcmmi10
p98
sg15
I400
sg16
g12
sg17
g12
sg18
V/opt/sage/local/lib/python2.7/site-packages/matplotlib/mpl-data/fonts/ttf/cmmi10.ttf
p99
sg20
g21
sbag1
(g8
g3
NtRp100
(dp101
g11
g24
sg13
VSTIXGeneral
p102
sg15
I400
sg16
g12
sg17
g12
sg18
V/opt/sage/local/lib/python2.7/site-packages/matplotlib/mpl-data/fonts/ttf/STIXGeneralItalic.ttf
p103
sg20
g21
sbag1
(g8
g3
NtRp104
(dp105
g11
g12
sg13
VBitstream Vera Sans Mono
p106
sg15
I700
sg16
g12
sg17
g12
sg18
V/opt/sage/local/lib/python2.7/site-packages/matplotlib/mpl-data/fonts/ttf/VeraMoBd.ttf
p107
sg20
g21
sbag1
(g8
g3
NtRp108
(dp109
g11
g12
sg13
VSTIXGeneral
p110
sg15
I400
sg16
g12
sg17
g12
sg18
V/opt/sage/local/lib/python2.7/site-packages/matplotlib/mpl-data/fonts/ttf/STIXGeneral.ttf
p111
sg20
g21
sbag1
(g8
g3
NtRp112
(dp113
g11
g12
sg13
VBitstream Vera Serif
p114
sg15
I400
sg16
g12
sg17
g12
sg18
V/opt/sage/local/lib/python2.7/site-packages/matplotlib/mpl-data/fonts/ttf/VeraSe.ttf
p115
sg20
g21
sbag1
(g8
g3
NtRp116
(dp117
g11
g12
sg13
VSTIXSizeThreeSym
p118
sg15
I400
sg16
g12
sg17
g12
sg18
V/opt/sage/local/lib/python2.7/site-packages/matplotlib/mpl-data/fonts/ttf/STIXSizThreeSymReg.ttf
p119
sg20
g21
sbag1
(g8
g3
NtRp120
(dp121
g11
g12
sg13
VBitstream Vera Sans
p122
sg15
I400
sg16
g12
sg17
g12
sg18
V/opt/sage/local/lib/python2.7/site-packages/matplotlib/mpl-data/fonts/ttf/Vera.ttf
p123
sg20
g21
sbag1
(g8
g3
NtRp124
(dp125
g11
g12
sg13
VSTIXSizeTwoSym
p126
sg15
I400
sg16
g12
sg17
g12
sg18
V/opt/sage/local/lib/python2.7/site-packages/matplotlib/mpl-data/fonts/ttf/STIXSizTwoSymReg.ttf
p127
sg20
g21
sbag1
(g8
g3
NtRp128
(dp129
g11
g12
sg13
VSTIXSizeFiveSym
p130
sg15
I400
sg16
g12
sg17
g12
sg18
V/opt/sage/local/lib/python2.7/site-packages/matplotlib/mpl-data/fonts/ttf/STIXSizFiveSymReg.ttf
p131
sg20
g21
sbag1
(g8
g3
NtRp132
(dp133
g11
g12
sg13
VSTIXSizeFourSym
p134
sg15
I400
sg16
g12
sg17
g12
sg18
V/opt/sage/local/lib/python2.7/site-packages/matplotlib/mpl-data/fonts/ttf/STIXSizFourSymReg.ttf
p135
sg20
g21
sbag1
(g8
g3
NtRp136
(dp137
g11
g12
sg13
VSTIXSizeFourSym
p138
sg15
I700
sg16
g12
sg17
g12
sg18
V/opt/sage/local/lib/python2.7/site-packages/matplotlib/mpl-data/fonts/ttf/STIXSizFourSymBol.ttf
p139
sg20
g21
sbag1
(g8
g3
NtRp140
(dp141
g11
g24
sg13
VSTIXGeneral
p142
sg15
I700
sg16
g12
sg17
g12
sg18
V/opt/sage/local/lib/python2.7/site-packages/matplotlib/mpl-data/fonts/ttf/STIXGeneralBolIta.ttf
p143
sg20
g21
sbag1
(g8
g3
NtRp144
(dp145
g11
g41
sg13
VBitstream Vera Sans
p146
sg15
I400
sg16
g12
sg17
g12
sg18
V/opt/sage/local/lib/python2.7/site-packages/matplotlib/mpl-data/fonts/ttf/VeraIt.ttf
p147
sg20
g21
sbag1
(g8
g3
NtRp148
(dp149
g11
g12
sg13
VSTIXSizeThreeSym
p150
sg15
I700
sg16
g12
sg17
g12
sg18
V/opt/sage/local/lib/python2.7/site-packages/matplotlib/mpl-data/fonts/ttf/STIXSizThreeSymBol.ttf
p151
sg20
g21
sbag1
(g8
g3
NtRp152
(dp153
g11
g12
sg13
VBitstream Vera Sans
p154
sg15
I700
sg16
g12
sg17
g12
sg18
V/opt/sage/local/lib/python2.7/site-packages/matplotlib/mpl-data/fonts/ttf/VeraBd.ttf
p155
sg20
g21
sbasS'defaultFamily'
p156
(dp157
Vafm
p158
VHelvetica
p159
sVttf
p160
VBitstream Vera Sans
p161
ssS'ttffiles'
p162
(lp163
g19
ag26
ag30
ag34
ag38
ag43
ag47
ag51
ag55
ag59
ag63
ag67
ag71
ag75
ag79
ag83
ag87
ag91
ag95
ag99
ag103
ag107
ag111
ag115
ag119
ag123
ag127
ag131
ag135
ag139
ag143
ag147
ag151
ag155
asS'_FontManager__default_weight'
p164
Vnormal
p165
sS'_version'
p166
I101
sS'default_size'
p167
NsS'defaultFont'
p168
(dp169
g158
V/opt/sage/local/lib/python2.7/site-packages/matplotlib/mpl-data/fonts/afm/ptmb8a.afm
p170
sg160
g123
ssS'afmfiles'
p171
(lp172
g170
aV/opt/sage/local/lib/python2.7/site-packages/matplotlib/mpl-data/fonts/afm/phvr8a.afm
p173
aV/opt/sage/local/lib/python2.7/site-packages/matplotlib/mpl-data/fonts/afm/ptmri8a.afm
p174
aV/opt/sage/local/lib/python2.7/site-packages/matplotlib/mpl-data/fonts/afm/psyr.afm
p175
aV/opt/sage/local/lib/python2.7/site-packages/matplotlib/mpl-data/fonts/afm/pcrbo8a.afm
p176
aV/opt/sage/local/lib/python2.7/site-packages/matplotlib/mpl-data/fonts/afm/putri8a.afm
p177
aV/opt/sage/local/lib/python2.7/site-packages/matplotlib/mpl-data/fonts/pdfcorefonts/Times-Italic.afm
p178
aV/opt/sage/local/lib/python2.7/site-packages/matplotlib/mpl-data/fonts/pdfcorefonts/Times-Bold.afm
p179
aV/opt/sage/local/lib/python2.7/site-packages/matplotlib/mpl-data/fonts/afm/phvlo8a.afm
p180
aV/opt/sage/local/lib/python2.7/site-packages/matplotlib/mpl-data/fonts/afm/pncr8a.afm
p181
aV/opt/sage/local/lib/python2.7/site-packages/matplotlib/mpl-data/fonts/afm/pncbi8a.afm
p182
aV/opt/sage/local/lib/python2.7/site-packages/matplotlib/mpl-data/fonts/pdfcorefonts/Helvetica.afm
p183
aV/opt/sage/local/lib/python2.7/site-packages/matplotlib/mpl-data/fonts/afm/pcrb8a.afm
p184
aV/opt/sage/local/lib/python2.7/site-packages/matplotlib/mpl-data/fonts/afm/pplri8a.afm
p185
aV/opt/sage/local/lib/python2.7/site-packages/matplotlib/mpl-data/fonts/afm/pbkdi8a.afm
p186
aV/opt/sage/local/lib/python2.7/site-packages/matplotlib/mpl-data/fonts/afm/putr8a.afm
p187
aV/opt/sage/local/lib/python2.7/site-packages/matplotlib/mpl-data/fonts/pdfcorefonts/ZapfDingbats.afm
p188
aV/opt/sage/local/lib/python2.7/site-packages/matplotlib/mpl-data/fonts/afm/cmmi10.afm
p189
aV/opt/sage/local/lib/python2.7/site-packages/matplotlib/mpl-data/fonts/afm/phvl8a.afm
p190
aV/opt/sage/local/lib/python2.7/site-packages/matplotlib/mpl-data/fonts/pdfcorefonts/Helvetica-Oblique.afm
p191
aV/opt/sage/local/lib/python2.7/site-packages/matplotlib/mpl-data/fonts/afm/pplbi8a.afm
p192
aV/opt/sage/local/lib/python2.7/site-packages/matplotlib/mpl-data/fonts/pdfcorefonts/Symbol.afm
p193
aV/opt/sage/local/lib/python2.7/site-packages/matplotlib/mpl-data/fonts/pdfcorefonts/Courier-BoldOblique.afm
p194
aV/opt/sage/local/lib/python2.7/site-packages/matplotlib/mpl-data/fonts/afm/pplb8a.afm
p195
aV/opt/sage/local/lib/python2.7/site-packages/matplotlib/mpl-data/fonts/afm/phvb8a.afm
p196
aV/opt/sage/local/lib/python2.7/site-packages/matplotlib/mpl-data/fonts/pdfcorefonts/Courier.afm
p197
aV/opt/sage/local/lib/python2.7/site-packages/matplotlib/mpl-data/fonts/afm/pagko8a.afm
p198
aV/opt/sage/local/lib/python2.7/site-packages/matplotlib/mpl-data/fonts/afm/phvbo8a.afm
p199
aV/opt/sage/local/lib/python2.7/site-packages/matplotlib/mpl-data/fonts/afm/cmr10.afm
p200
aV/opt/sage/local/lib/python2.7/site-packages/matplotlib/mpl-data/fonts/afm/pplr8a.afm
p201
aV/opt/sage/local/lib/python2.7/site-packages/matplotlib/mpl-data/fonts/afm/pncb8a.afm
p202
aV/opt/sage/local/lib/python2.7/site-packages/matplotlib/mpl-data/fonts/afm/pncri8a.afm
p203
aV/opt/sage/local/lib/python2.7/site-packages/matplotlib/mpl-data/fonts/afm/phvro8an.afm
p204
aV/opt/sage/local/lib/python2.7/site-packages/matplotlib/mpl-data/fonts/afm/pcrro8a.afm
p205
aV/opt/sage/local/lib/python2.7/site-packages/matplotlib/mpl-data/fonts/afm/pzcmi8a.afm
p206
aV/opt/sage/local/lib/python2.7/site-packages/matplotlib/mpl-data/fonts/afm/pbkli8a.afm
p207
aV/opt/sage/local/lib/python2.7/site-packages/matplotlib/mpl-data/fonts/afm/pagd8a.afm
p208
aV/opt/sage/local/lib/python2.7/site-packages/matplotlib/mpl-data/fonts/afm/phvr8an.afm
p209
aV/opt/sage/local/lib/python2.7/site-packages/matplotlib/mpl-data/fonts/afm/pbkl8a.afm
p210
aV/opt/sage/local/lib/python2.7/site-packages/matplotlib/mpl-data/fonts/pdfcorefonts/Helvetica-BoldOblique.afm
p211
aV/opt/sage/local/lib/python2.7/site-packages/matplotlib/mpl-data/fonts/afm/ptmr8a.afm
p212
aV/opt/sage/local/lib/python2.7/site-packages/matplotlib/mpl-data/fonts/afm/putb8a.afm
p213
aV/opt/sage/local/lib/python2.7/site-packages/matplotlib/mpl-data/fonts/pdfcorefonts/Courier-Oblique.afm
p214
aV/opt/sage/local/lib/python2.7/site-packages/matplotlib/mpl-data/fonts/afm/cmsy10.afm
p215
aV/opt/sage/local/lib/python2.7/site-packages/matplotlib/mpl-data/fonts/afm/putbi8a.afm
p216
aV/opt/sage/local/lib/python2.7/site-packages/matplotlib/mpl-data/fonts/pdfcorefonts/Helvetica-Bold.afm
p217
aV/opt/sage/local/lib/python2.7/site-packages/matplotlib/mpl-data/fonts/afm/pbkd8a.afm
p218
aV/opt/sage/local/lib/python2.7/site-packages/matplotlib/mpl-data/fonts/afm/phvb8an.afm
p219
aV/opt/sage/local/lib/python2.7/site-packages/matplotlib/mpl-data/fonts/afm/pzdr.afm
p220
aV/opt/sage/local/lib/python2.7/site-packages/matplotlib/mpl-data/fonts/afm/phvro8a.afm
p221
aV/opt/sage/local/lib/python2.7/site-packages/matplotlib/mpl-data/fonts/pdfcorefonts/Courier-Bold.afm
p222
aV/opt/sage/local/lib/python2.7/site-packages/matplotlib/mpl-data/fonts/pdfcorefonts/Times-BoldItalic.afm
p223
aV/opt/sage/local/lib/python2.7/site-packages/matplotlib/mpl-data/fonts/afm/pcrr8a.afm
p224
aV/opt/sage/local/lib/python2.7/site-packages/matplotlib/mpl-data/fonts/afm/phvbo8an.afm
p225
aV/opt/sage/local/lib/python2.7/site-packages/matplotlib/mpl-data/fonts/afm/cmex10.afm
p226
aV/opt/sage/local/lib/python2.7/site-packages/matplotlib/mpl-data/fonts/afm/pagdo8a.afm
p227
aV/opt/sage/local/lib/python2.7/site-packages/matplotlib/mpl-data/fonts/afm/ptmbi8a.afm
p228
aV/opt/sage/local/lib/python2.7/site-packages/matplotlib/mpl-data/fonts/afm/pagk8a.afm
p229
aV/opt/sage/local/lib/python2.7/site-packages/matplotlib/mpl-data/fonts/pdfcorefonts/Times-Roman.afm
p230
aV/opt/sage/local/lib/python2.7/site-packages/matplotlib/mpl-data/fonts/afm/cmtt10.afm
p231
asS'afmlist'
p232
(lp233
g1
(g8
g3
NtRp234
(dp235
g11
Vnormal
p236
sg13
S'Times'
p237
sg15
I700
sg16
g236
sg17
g236
sg18
g170
sg20
Vscalable
p238
sbag1
(g8
g3
NtRp239
(dp240
g11
g236
sg13
S'Helvetica'
p241
sg15
I500
sg16
g236
sg17
g236
sg18
g173
sg20
g238
sbag1
(g8
g3
NtRp242
(dp243
g11
Vitalic
p244
sg13
S'Times'
p245
sg15
I500
sg16
g236
sg17
g236
sg18
g174
sg20
g238
sbag1
(g8
g3
NtRp246
(dp247
g11
g236
sg13
S'Symbol'
p248
sg15
I500
sg16
g236
sg17
g236
sg18
g175
sg20
g238
sbag1
(g8
g3
NtRp249
(dp250
g11
g244
sg13
S'Courier'
p251
sg15
I700
sg16
g236
sg17
g236
sg18
g176
sg20
g238
sbag1
(g8
g3
NtRp252
(dp253
g11
g244
sg13
S'Utopia'
p254
sg15
I400
sg16
g236
sg17
g236
sg18
g177
sg20
g238
sbag1
(g8
g3
NtRp255
(dp256
g11
g244
sg13
S'Times'
p257
sg15
I500
sg16
g236
sg17
g236
sg18
g178
sg20
g238
sbag1
(g8
g3
NtRp258
(dp259
g11
g236
sg13
S'Times'
p260
sg15
I700
sg16
g236
sg17
g236
sg18
g179
sg20
g238
sbag1
(g8
g3
NtRp261
(dp262
g11
g244
sg13
S'Helvetica'
p263
sg15
I200
sg16
g236
sg17
g236
sg18
g180
sg20
g238
sbag1
(g8
g3
NtRp264
(dp265
g11
g236
sg13
S'New Century Schoolbook'
p266
sg15
I500
sg16
g236
sg17
g236
sg18
g181
sg20
g238
sbag1
(g8
g3
NtRp267
(dp268
g11
g244
sg13
S'New Century Schoolbook'
p269
sg15
I700
sg16
g236
sg17
g236
sg18
g182
sg20
g238
sbag1
(g8
g3
NtRp270
(dp271
g11
g236
sg13
S'Helvetica'
p272
sg15
I500
sg16
g236
sg17
g236
sg18
g183
sg20
g238
sbag1
(g8
g3
NtRp273
(dp274
g11
g236
sg13
S'Courier'
p275
sg15
I700
sg16
g236
sg17
g236
sg18
g184
sg20
g238
sbag1
(g8
g3
NtRp276
(dp277
g11
g244
sg13
S'Palatino'
p278
sg15
I500
sg16
g236
sg17
g236
sg18
g185
sg20
g238
sbag1
(g8
g3
NtRp279
(dp280
g11
g244
sg13
S'ITC Bookman'
p281
sg15
I600
sg16
g236
sg17
g236
sg18
g186
sg20
g238
sbag1
(g8
g3
NtRp282
(dp283
g11
g236
sg13
S'Utopia'
p284
sg15
I400
sg16
g236
sg17
g236
sg18
g187
sg20
g238
sbag1
(g8
g3
NtRp285
(dp286
g11
g236
sg13
S'ZapfDingbats'
p287
sg15
I500
sg16
g236
sg17
g236
sg18
g188
sg20
g238
sbag1
(g8
g3
NtRp288
(dp289
g11
g244
sg13
S'Computer Modern'
p290
sg15
I500
sg16
g236
sg17
g236
sg18
g189
sg20
g238
sbag1
(g8
g3
NtRp291
(dp292
g11
g236
sg13
S'Helvetica'
p293
sg15
I200
sg16
g236
sg17
g236
sg18
g190
sg20
g238
sbag1
(g8
g3
NtRp294
(dp295
g11
g244
sg13
S'Helvetica'
p296
sg15
I500
sg16
g236
sg17
g236
sg18
g191
sg20
g238
sbag1
(g8
g3
NtRp297
(dp298
g11
g244
sg13
S'Palatino'
p299
sg15
I700
sg16
g236
sg17
g236
sg18
g192
sg20
g238
sbag1
(g8
g3
NtRp300
(dp301
g11
g236
sg13
S'Symbol'
p302
sg15
I500
sg16
g236
sg17
g236
sg18
g193
sg20
g238
sbag1
(g8
g3
NtRp303
(dp304
g11
g244
sg13
S'Courier'
p305
sg15
I700
sg16
g236
sg17
g236
sg18
g194
sg20
g238
sbag1
(g8
g3
NtRp306
(dp307
g11
g236
sg13
S'Palatino'
p308
sg15
I700
sg16
g236
sg17
g236
sg18
g195
sg20
g238
sbag1
(g8
g3
NtRp309
(dp310
g11
g236
sg13
S'Helvetica'
p311
sg15
I700
sg16
g236
sg17
g236
sg18
g196
sg20
g238
sbag1
(g8
g3
NtRp312
(dp313
g11
g236
sg13
S'Courier'
p314
sg15
I500
sg16
g236
sg17
g236
sg18
g197
sg20
g238
sbag1
(g8
g3
NtRp315
(dp316
g11
g244
sg13
S'ITC Avant Garde Gothic'
p317
sg15
I400
sg16
g236
sg17
g236
sg18
g198
sg20
g238
sbag1
(g8
g3
NtRp318
(dp319
g11
g244
sg13
S'Helvetica'
p320
sg15
I700
sg16
g236
sg17
g236
sg18
g199
sg20
g238
sbag1
(g8
g3
NtRp321
(dp322
g11
g236
sg13
S'Computer Modern'
p323
sg15
I500
sg16
g236
sg17
g236
sg18
g200
sg20
g238
sbag1
(g8
g3
NtRp324
(dp325
g11
g236
sg13
S'Palatino'
p326
sg15
I500
sg16
g236
sg17
g236
sg18
g201
sg20
g238
sbag1
(g8
g3
NtRp327
(dp328
g11
g236
sg13
S'New Century Schoolbook'
p329
sg15
I700
sg16
g236
sg17
g236
sg18
g202
sg20
g238
sbag1
(g8
g3
NtRp330
(dp331
g11
g244
sg13
S'New Century Schoolbook'
p332
sg15
I500
sg16
g236
sg17
g236
sg18
g203
sg20
g238
sbag1
(g8
g3
NtRp333
(dp334
g11
g244
sg13
S'Helvetica'
p335
sg15
I500
sg16
Vcondensed
p336
sg17
g236
sg18
g204
sg20
g238
sbag1
(g8
g3
NtRp337
(dp338
g11
g244
sg13
S'Courier'
p339
sg15
I500
sg16
g236
sg17
g236
sg18
g205
sg20
g238
sbag1
(g8
g3
NtRp340
(dp341
g11
g244
sg13
S'ITC Zapf Chancery'
p342
sg15
I500
sg16
g236
sg17
g236
sg18
g206
sg20
g238
sbag1
(g8
g3
NtRp343
(dp344
g11
g244
sg13
S'ITC Bookman'
p345
sg15
I200
sg16
g236
sg17
g236
sg18
g207
sg20
g238
sbag1
(g8
g3
NtRp346
(dp347
g11
g236
sg13
S'ITC Avant Garde Gothic'
p348
sg15
I600
sg16
g236
sg17
g236
sg18
g208
sg20
g238
sbag1
(g8
g3
NtRp349
(dp350
g11
g236
sg13
S'Helvetica'
p351
sg15
I500
sg16
g336
sg17
g236
sg18
g209
sg20
g238
sbag1
(g8
g3
NtRp352
(dp353
g11
g236
sg13
S'ITC Bookman'
p354
sg15
I200
sg16
g236
sg17
g236
sg18
g210
sg20
g238
sbag1
(g8
g3
NtRp355
(dp356
g11
g244
sg13
S'Helvetica'
p357
sg15
I700
sg16
g236
sg17
g236
sg18
g211
sg20
g238
sbag1
(g8
g3
NtRp358
(dp359
g11
g236
sg13
S'Times'
p360
sg15
I500
sg16
g236
sg17
g236
sg18
g212
sg20
g238
sbag1
(g8
g3
NtRp361
(dp362
g11
g236
sg13
S'Utopia'
p363
sg15
I700
sg16
g236
sg17
g236
sg18
g213
sg20
g238
sbag1
(g8
g3
NtRp364
(dp365
g11
g244
sg13
S'Courier'
p366
sg15
I500
sg16
g236
sg17
g236
sg18
g214
sg20
g238
sbag1
(g8
g3
NtRp367
(dp368
g11
g244
sg13
S'Computer Modern'
p369
sg15
I500
sg16
g236
sg17
g236
sg18
g215
sg20
g238
sbag1
(g8
g3
NtRp370
(dp371
g11
g244
sg13
S'Utopia'
p372
sg15
I700
sg16
g236
sg17
g236
sg18
g216
sg20
g238
sbag1
(g8
g3
NtRp373
(dp374
g11
g236
sg13
S'Helvetica'
p375
sg15
I700
sg16
g236
sg17
g236
sg18
g217
sg20
g238
sbag1
(g8
g3
NtRp376
(dp377
g11
g236
sg13
S'ITC Bookman'
p378
sg15
I600
sg16
g236
sg17
g236
sg18
g218
sg20
g238
sbag1
(g8
g3
NtRp379
(dp380
g11
g236
sg13
S'Helvetica'
p381
sg15
I700
sg16
g336
sg17
g236
sg18
g219
sg20
g238
sbag1
(g8
g3
NtRp382
(dp383
g11
g236
sg13
S'ITC Zapf Dingbats'
p384
sg15
I500
sg16
g236
sg17
g236
sg18
g220
sg20
g238
sbag1
(g8
g3
NtRp385
(dp386
g11
g244
sg13
S'Helvetica'
p387
sg15
I500
sg16
g236
sg17
g236
sg18
g221
sg20
g238
sbag1
(g8
g3
NtRp388
(dp389
g11
g236
sg13
S'Courier'
p390
sg15
I700
sg16
g236
sg17
g236
sg18
g222
sg20
g238
sbag1
(g8
g3
NtRp391
(dp392
g11
g244
sg13
S'Times'
p393
sg15
I700
sg16
g236
sg17
g236
sg18
g223
sg20
g238
sbag1
(g8
g3
NtRp394
(dp395
g11
g236
sg13
S'Courier'
p396
sg15
I500
sg16
g236
sg17
g236
sg18
g224
sg20
g238
sbag1
(g8
g3
NtRp397
(dp398
g11
g244
sg13
S'Helvetica'
p399
sg15
I700
sg16
g336
sg17
g236
sg18
g225
sg20
g238
sbag1
(g8
g3
NtRp400
(dp401
g11
g236
sg13
S'Computer Modern'
p402
sg15
I500
sg16
g236
sg17
g236
sg18
g226
sg20
g238
sbag1
(g8
g3
NtRp403
(dp404
g11
g244
sg13
S'ITC Avant Garde Gothic'
p405
sg15
I600
sg16
g236
sg17
g236
sg18
g227
sg20
g238
sbag1
(g8
g3
NtRp406
(dp407
g11
g244
sg13
S'Times'
p408
sg15
I700
sg16
g236
sg17
g236
sg18
g228
sg20
g238
sbag1
(g8
g3
NtRp409
(dp410
g11
g236
sg13
S'ITC Avant Garde Gothic'
p411
sg15
I400
sg16
g236
sg17
g236
sg18
g229
sg20
g238
sbag1
(g8
g3
NtRp412
(dp413
g11
g236
sg13
S'Times'
p414
sg15
I500
sg16
g236
sg17
g236
sg18
g230
sg20
g238
sbag1
(g8
g3
NtRp415
(dp416
g11
g236
sg13
S'Computer Modern'
p417
sg15
I500
sg16
g236
sg17
g236
sg18
g231
sg20
g238
sbasb.