(dp1
S'sage.arith.all'
p2
(lp3
S'CRT'
p4
aS'CRT_basis'
p5
aS'CRT_list'
p6
aS'CRT_vectors'
p7
aS'Euler_Phi'
p8
aS'GCD'
p9
aS'LCM'
p10
aS'Moebius'
p11
aS'Sigma'
p12
aS'algdep'
p13
aS'bernoulli'
p14
aS'binomial'
p15
aS'binomial_coefficients'
p16
aS'continuant'
p17
aS'crt'
p18
aS'dedekind_sum'
p19
aS'differences'
p20
aS'divisors'
p21
aS'ellipsis_iter'
p22
aS'ellipsis_range'
p23
aS'eratosthenes'
p24
aS'euler_phi'
p25
aS'factor'
p26
aS'factorial'
p27
aS'falling_factorial'
p28
aS'four_squares'
p29
aS'fundamental_discriminant'
p30
aS'gcd'
p31
aS'get_gcd'
p32
aS'get_inverse_mod'
p33
aS'hilbert_conductor'
p34
aS'hilbert_conductor_inverse'
p35
aS'hilbert_symbol'
p36
aS'integer_ceil'
p37
aS'integer_floor'
p38
aS'inverse_mod'
p39
aS'is_power_of_two'
p40
aS'is_prime'
p41
aS'is_prime_power'
p42
aS'is_pseudoprime'
p43
aS'is_pseudoprime_power'
p44
aS'is_square'
p45
aS'is_squarefree'
p46
aS'jacobi_symbol'
p47
aS'kronecker'
p48
aS'kronecker_symbol'
p49
aS'lcm'
p50
aS'legendre_symbol'
p51
aS'moebius'
p52
aS'mqrr_rational_reconstruction'
p53
aS'multinomial'
p54
aS'multinomial_coefficients'
p55
aS'next_prime'
p56
aS'next_prime_power'
p57
aS'next_probable_prime'
p58
aS'nth_prime'
p59
aS'number_of_divisors'
p60
aS'odd_part'
p61
aS'power_mod'
p62
aS'previous_prime'
p63
aS'previous_prime_power'
p64
aS'prime_divisors'
p65
aS'prime_factors'
p66
aS'prime_powers'
p67
aS'prime_range'
p68
aS'prime_to_m_part'
p69
aS'primes'
p70
aS'primes_first_n'
p71
aS'primitive_root'
p72
aS'quadratic_residues'
p73
aS'radical'
p74
aS'random_prime'
p75
aS'rational_reconstruction'
p76
aS'rising_factorial'
p77
aS'sigma'
p78
aS'sort_complex_numbers_for_display'
p79
aS'squarefree_divisors'
p80
aS'srange'
p81
aS'subfactorial'
p82
aS'sum_of_k_squares'
p83
aS'sxrange'
p84
aS'three_squares'
p85
aS'trial_division'
p86
aS'two_squares'
p87
aS'valuation'
p88
aS'xgcd'
p89
aS'xkcd'
p90
aS'xlcm'
p91
aS'xsrange'
p92
asS'sage.sandpiles.all'
p93
(lp94
S'Sandpile'
p95
aS'SandpileConfig'
p96
aS'SandpileDivisor'
p97
aS'absolute_import'
p98
aS'firing_graph'
p99
aS'lazy_import'
p100
aS'parallel_firing_graph'
p101
aS'random_DAG'
p102
aS'sandpiles'
p103
aS'triangle_sandpile'
p104
aS'wilmes_algorithm'
p105
as.